target datalayout = "e-m:e-p270:32:32-p271:32:32-p272:64:64-i64:64-i128:128-f80:128-n8:16:32:64-S128"
target triple = "x86_64-pc-linux-gnu"

%struct.jpeg_compress_struct = type { ptr, ptr, ptr, ptr, i32, i32, ptr, i32, i32, i32, i32, double, i32, i32, i32, ptr, [4 x ptr], [4 x ptr], [4 x ptr], [16 x i8], [16 x i8], [16 x i8], i32, ptr, i32, i32, i32, i32, i32, i32, i32, i32, i32, i8, i8, i8, i16, i16, i32, i32, i32, i32, i32, i32, i32, [4 x ptr], i32, i32, i32, [10 x i32], i32, i32, i32, i32, ptr, ptr, ptr, ptr, ptr, ptr, ptr, ptr, ptr, ptr, i32 }
%struct._tga_source_struct = type { %struct.cjpeg_source_struct, ptr, ptr, ptr, i32, ptr, [4 x i8], i32, i32, i32, i32, ptr }
%struct.cjpeg_source_struct = type { ptr, ptr, ptr, ptr, ptr, ptr, ptr, i32, i32 }

; Function Attrs: nounwind uwtable
define internal i32 @get_24bit_row(ptr noundef %0, ptr noundef %1) #0 {
  %3 = alloca ptr, align 8
  %4 = alloca ptr, align 8
  %5 = alloca ptr, align 8
  %6 = alloca ptr, align 8
  %7 = alloca i32, align 4
  store ptr %0, ptr %3, align 8
  store ptr %1, ptr %4, align 8
  %8 = load ptr, ptr %4, align 8
  store ptr %8, ptr %5, align 8
  %9 = load ptr, ptr %5, align 8
  %10 = getelementptr inbounds %struct._tga_source_struct, ptr %9, i32 0, i32 0
  %11 = getelementptr inbounds %struct.cjpeg_source_struct, ptr %10, i32 0, i32 4
  %12 = load ptr, ptr %11, align 8
  %13 = getelementptr inbounds ptr, ptr %12, i64 0
  %14 = load ptr, ptr %13, align 8
  store ptr %14, ptr %6, align 8
  %15 = load ptr, ptr %3, align 8
  %16 = getelementptr inbounds %struct.jpeg_compress_struct, ptr %15, i32 0, i32 7
  %17 = load i32, ptr %16, align 8
  store i32 %17, ptr %7, align 4
  br label %18

18:                                               ; preds = %50, %2
  %19 = load i32, ptr %7, align 4
  %20 = icmp ugt i32 %19, 0
  br i1 %20, label %21, label %53

21:                                               ; preds = %18
  %22 = load ptr, ptr %5, align 8
  %23 = getelementptr inbounds %struct._tga_source_struct, ptr %22, i32 0, i32 5
  %24 = load ptr, ptr %23, align 8
  %25 = load ptr, ptr %5, align 8
  call void %24(ptr noundef %25)
  %26 = load ptr, ptr %5, align 8
  %27 = getelementptr inbounds %struct._tga_source_struct, ptr %26, i32 0, i32 6
  %28 = getelementptr inbounds [4 x i8], ptr %27, i64 0, i64 2
  %29 = load i8, ptr %28, align 2
  %30 = zext i8 %29 to i32
  %31 = trunc i32 %30 to i8
  %32 = load ptr, ptr %6, align 8
  %33 = getelementptr inbounds i8, ptr %32, i32 1
  store ptr %33, ptr %6, align 8
  store i8 %31, ptr %32, align 1
  %34 = load ptr, ptr %5, align 8
  %35 = getelementptr inbounds %struct._tga_source_struct, ptr %34, i32 0, i32 6
  %36 = getelementptr inbounds [4 x i8], ptr %35, i64 0, i64 1
  %37 = load i8, ptr %36, align 1
  %38 = zext i8 %37 to i32
  %39 = trunc i32 %38 to i8
  %40 = load ptr, ptr %6, align 8
  %41 = getelementptr inbounds i8, ptr %40, i32 1
  store ptr %41, ptr %6, align 8
  store i8 %39, ptr %40, align 1
  %42 = load ptr, ptr %5, align 8
  %43 = getelementptr inbounds %struct._tga_source_struct, ptr %42, i32 0, i32 6
  %44 = getelementptr inbounds [4 x i8], ptr %43, i64 0, i64 0
  %45 = load i8, ptr %44, align 8
  %46 = zext i8 %45 to i32
  %47 = trunc i32 %46 to i8
  %48 = load ptr, ptr %6, align 8
  %49 = getelementptr inbounds i8, ptr %48, i32 1
  store ptr %49, ptr %6, align 8
  store i8 %47, ptr %48, align 1
  br label %50

50:                                               ; preds = %21
  %51 = load i32, ptr %7, align 4
  %52 = add i32 %51, -1
  store i32 %52, ptr %7, align 4
  br label %18, !llvm.loop !11

53:                                               ; preds = %18
  ret i32 1
}