; Function Attrs: nounwind uwtable
define internal noundef i32 @get_24bit_row(ptr nocapture noundef readonly %0, ptr noundef %1) #0 {
  %3 = getelementptr inbounds i8, ptr %0, i64 48
  %4 = load i32, ptr %3, align 8
  %.not13 = icmp eq i32 %4, 0
  br i1 %.not13, label %._crit_edge, label %.lr.ph

.lr.ph:                                           ; preds = %2
  %5 = getelementptr inbounds i8, ptr %1, i64 32
  %6 = load ptr, ptr %5, align 8
  %7 = load ptr, ptr %6, align 8
  %8 = getelementptr inbounds i8, ptr %1, i64 96
  %9 = getelementptr inbounds i8, ptr %1, i64 104
  %10 = getelementptr inbounds i8, ptr %1, i64 106
  %11 = getelementptr inbounds i8, ptr %1, i64 105
  br label %12

12:                                               ; preds = %.lr.ph, %12
  %.015 = phi i32 [ %4, %.lr.ph ], [ %20, %12 ]
  %.01214 = phi ptr [ %7, %.lr.ph ], [ %19, %12 ]
  %13 = load ptr, ptr %8, align 8
  tail call void %13(ptr noundef nonnull %1) #3
  %14 = load i8, ptr %10, align 2
  %15 = getelementptr inbounds i8, ptr %.01214, i64 1
  store i8 %14, ptr %.01214, align 1
  %16 = load i8, ptr %11, align 1
  %17 = getelementptr inbounds i8, ptr %.01214, i64 2
  store i8 %16, ptr %15, align 1
  %18 = load i8, ptr %9, align 8
  %19 = getelementptr inbounds i8, ptr %.01214, i64 3
  store i8 %18, ptr %17, align 1
  %20 = add i32 %.015, -1
  %.not = icmp eq i32 %20, 0
  br i1 %.not, label %._crit_edge, label %12, !llvm.loop !12

._crit_edge:                                      ; preds = %12, %2
  ret i32 1
}